target datalayout = "e-m:e-p270:32:32-p271:32:32-p272:64:64-i64:64-i128:128-f80:128-n8:16:32:64-S128"
target triple = "x86_64-pc-linux-gnu"

@.str.27 = private unnamed_addr constant [5 x i8] c"zero\00", align 1

; Function Attrs: nounwind uwtable
define internal i32 @math_fmod(ptr noundef %0) #0 {
  %2 = alloca ptr, align 8
  %3 = alloca i64, align 8
  store ptr %0, ptr %2, align 8, !tbaa !4
  %4 = load ptr, ptr %2, align 8, !tbaa !4
  %5 = call i32 @lua_isinteger(ptr noundef %4, i32 noundef 1)
  %6 = icmp ne i32 %5, 0
  br i1 %6, label %7, label %38

7:                                                ; preds = %1
  %8 = load ptr, ptr %2, align 8, !tbaa !4
  %9 = call i32 @lua_isinteger(ptr noundef %8, i32 noundef 2)
  %10 = icmp ne i32 %9, 0
  br i1 %10, label %11, label %38

11:                                               ; preds = %7
  call void @llvm.lifetime.start.p0(i64 8, ptr %3) #6
  %12 = load ptr, ptr %2, align 8, !tbaa !4
  %13 = call i64 @lua_tointegerx(ptr noundef %12, i32 noundef 2, ptr noundef null)
  store i64 %13, ptr %3, align 8, !tbaa !10
  %14 = load i64, ptr %3, align 8, !tbaa !10
  %15 = add i64 %14, 1
  %16 = icmp ule i64 %15, 1
  br i1 %16, label %17, label %31

17:                                               ; preds = %11
  %18 = load i64, ptr %3, align 8, !tbaa !10
  %19 = icmp ne i64 %18, 0
  %20 = zext i1 %19 to i32
  %21 = icmp ne i32 %20, 0
  %22 = zext i1 %21 to i32
  %23 = sext i32 %22 to i64
  %24 = call i64 @llvm.expect.i64(i64 %23, i64 1)
  %25 = icmp ne i64 %24, 0
  br i1 %25, label %29, label %26

26:                                               ; preds = %17
  %27 = load ptr, ptr %2, align 8, !tbaa !4
  %28 = call i32 @luaL_argerror(ptr noundef %27, i32 noundef 2, ptr noundef @.str.27)
  br label %29

29:                                               ; preds = %26, %17
  %30 = load ptr, ptr %2, align 8, !tbaa !4
  call void @lua_pushinteger(ptr noundef %30, i64 noundef 0)
  br label %37

31:                                               ; preds = %11
  %32 = load ptr, ptr %2, align 8, !tbaa !4
  %33 = load ptr, ptr %2, align 8, !tbaa !4
  %34 = call i64 @lua_tointegerx(ptr noundef %33, i32 noundef 1, ptr noundef null)
  %35 = load i64, ptr %3, align 8, !tbaa !10
  %36 = srem i64 %34, %35
  call void @lua_pushinteger(ptr noundef %32, i64 noundef %36)
  br label %37

37:                                               ; preds = %31, %29
  call void @llvm.lifetime.end.p0(i64 8, ptr %3) #6
  br label %45

38:                                               ; preds = %7, %1
  %39 = load ptr, ptr %2, align 8, !tbaa !4
  %40 = load ptr, ptr %2, align 8, !tbaa !4
  %41 = call double @luaL_checknumber(ptr noundef %40, i32 noundef 1)
  %42 = load ptr, ptr %2, align 8, !tbaa !4
  %43 = call double @luaL_checknumber(ptr noundef %42, i32 noundef 2)
  %44 = call double @fmod(double noundef %41, double noundef %43) #6, !tbaa !12
  call void @lua_pushnumber(ptr noundef %39, double noundef %44)
  br label %45

45:                                               ; preds = %38, %37
  ret i32 1
}