; Function Attrs: nounwind uwtable
define internal noundef i32 @math_fmod(ptr noundef %0) #0 {
  %2 = tail call i32 @lua_isinteger(ptr noundef %0, i32 noundef 1) #6
  %.not = icmp eq i32 %2, 0
  br i1 %.not, label %16, label %3

3:                                                ; preds = %1
  %4 = tail call i32 @lua_isinteger(ptr noundef %0, i32 noundef 2) #6
  %.not12 = icmp eq i32 %4, 0
  br i1 %.not12, label %16, label %5

5:                                                ; preds = %3
  %6 = tail call i64 @lua_tointegerx(ptr noundef %0, i32 noundef 2, ptr noundef null) #6
  %7 = add i64 %6, 1
  %8 = icmp ult i64 %7, 2
  br i1 %8, label %9, label %13

9:                                                ; preds = %5
  %.not13 = icmp eq i64 %6, 0
  br i1 %.not13, label %10, label %12, !prof !10

10:                                               ; preds = %9
  %11 = tail call i32 @luaL_argerror(ptr noundef %0, i32 noundef 2, ptr noundef nonnull @.str.27) #6
  br label %12

12:                                               ; preds = %10, %9
  tail call void @lua_pushinteger(ptr noundef %0, i64 noundef 0) #6
  br label %20

13:                                               ; preds = %5
  %14 = tail call i64 @lua_tointegerx(ptr noundef %0, i32 noundef 1, ptr noundef null) #6
  %15 = srem i64 %14, %6
  tail call void @lua_pushinteger(ptr noundef %0, i64 noundef %15) #6
  br label %20

16:                                               ; preds = %3, %1
  %17 = tail call double @luaL_checknumber(ptr noundef %0, i32 noundef 1) #6
  %18 = tail call double @luaL_checknumber(ptr noundef %0, i32 noundef 2) #6
  %19 = tail call double @fmod(double noundef %17, double noundef %18) #6, !tbaa !8
  tail call void @lua_pushnumber(ptr noundef %0, double noundef %19) #6
  br label %20

20:                                               ; preds = %12, %13, %16
  ret i32 1
}